target datalayout = "e-m:e-p270:32:32-p271:32:32-p272:64:64-i64:64-i128:128-f80:128-n8:16:32:64-S128"
target triple = "x86_64-pc-linux-gnu"

%struct.afalg_aio_st = type { i32, i32, i64, [1 x %struct.io_event], [1 x %struct.iocb] }
%struct.io_event = type { i64, i64, i64, i64 }
%struct.iocb = type { i64, i32, i32, i16, i16, i32, i64, i64, i64, i64, i32, i32 }

@.str.1 = private unnamed_addr constant [29 x i8] c"../openssl/engines/e_afalg.c\00", align 1
@stderr = external global ptr, align 8
@lib_code = internal global i32 0, align 4
@.str.5 = private unnamed_addr constant [33 x i8] c"../openssl/engines/e_afalg_err.c\00", align 1
@__func__.ERR_AFALG_error = private unnamed_addr constant [16 x i8] c"ERR_AFALG_error\00", align 1
@.str.27 = private unnamed_addr constant [36 x i8] c"ALG_PERR: %s(%d): io_setup error : \00", align 1

; Function Attrs: nounwind uwtable
define internal void @ERR_AFALG_error(i32 noundef %0, i32 noundef %1, ptr noundef %2, i32 noundef %3) #0 {
  %5 = alloca i32, align 4
  %6 = alloca i32, align 4
  %7 = alloca ptr, align 8
  %8 = alloca i32, align 4
  store i32 %0, ptr %5, align 4, !tbaa !20
  store i32 %1, ptr %6, align 4, !tbaa !20
  store ptr %2, ptr %7, align 8, !tbaa !10
  store i32 %3, ptr %8, align 4, !tbaa !20
  %9 = load i32, ptr @lib_code, align 4, !tbaa !20
  %10 = icmp eq i32 %9, 0
  br i1 %10, label %11, label %13

11:                                               ; preds = %4
  %12 = call i32 @ERR_get_next_error_library()
  store i32 %12, ptr @lib_code, align 4, !tbaa !20
  br label %13

13:                                               ; preds = %11, %4
  call void @ERR_new()
  call void @ERR_set_debug(ptr noundef @.str.5, i32 noundef 70, ptr noundef @__func__.ERR_AFALG_error)
  %14 = load i32, ptr @lib_code, align 4, !tbaa !20
  %15 = load i32, ptr %6, align 4, !tbaa !20
  call void (i32, i32, ptr, ...) @ERR_set_error(i32 noundef %14, i32 noundef %15, ptr noundef null)
  %16 = load ptr, ptr %7, align 8, !tbaa !10
  %17 = load i32, ptr %8, align 4, !tbaa !20
  call void @ERR_set_debug(ptr noundef %16, i32 noundef %17, ptr noundef null)
  ret void
}

; Function Attrs: inlinehint nounwind uwtable
define internal i32 @io_setup(i32 noundef %0, ptr noundef %1) #7 {
  %3 = alloca i32, align 4
  %4 = alloca ptr, align 8
  store i32 %0, ptr %3, align 4, !tbaa !20
  store ptr %1, ptr %4, align 8, !tbaa !62
  %5 = load i32, ptr %3, align 4, !tbaa !20
  %6 = load ptr, ptr %4, align 8, !tbaa !62
  %7 = call i64 (i64, ...) @syscall(i64 noundef 206, i32 noundef %5, ptr noundef %6) #11
  %8 = trunc i64 %7 to i32
  ret i32 %8
}

; Function Attrs: nounwind uwtable
define internal i32 @afalg_init_aio(ptr noundef %0) #0 {
  %2 = alloca i32, align 4
  %3 = alloca ptr, align 8
  %4 = alloca i32, align 4
  %5 = alloca i32, align 4
  store ptr %0, ptr %3, align 8, !tbaa !57
  call void @llvm.lifetime.start.p0(i64 4, ptr %4) #11
  store i32 -1, ptr %4, align 4, !tbaa !20
  %6 = load ptr, ptr %3, align 8, !tbaa !57
  %7 = getelementptr inbounds nuw %struct.afalg_aio_st, ptr %6, i32 0, i32 2
  store i64 0, ptr %7, align 8, !tbaa !59
  %8 = load ptr, ptr %3, align 8, !tbaa !57
  %9 = getelementptr inbounds nuw %struct.afalg_aio_st, ptr %8, i32 0, i32 2
  %10 = call i32 @io_setup(i32 noundef 1, ptr noundef %9)
  store i32 %10, ptr %4, align 4, !tbaa !20
  %11 = load i32, ptr %4, align 4, !tbaa !20
  %12 = icmp slt i32 %11, 0
  br i1 %12, label %13, label %19

13:                                               ; preds = %1
  br label %14

14:                                               ; preds = %13
  %15 = load ptr, ptr @stderr, align 8, !tbaa !24
  %16 = call i32 (ptr, ptr, ...) @fprintf(ptr noundef %15, ptr noundef @.str.27, ptr noundef @.str.1, i32 noundef 251) #11
  call void @perror(ptr noundef null)
  br label %17

17:                                               ; preds = %14
  br label %18

18:                                               ; preds = %17
  call void @ERR_AFALG_error(i32 noundef 0, i32 noundef 105, ptr noundef @.str.1, i32 noundef 252)
  store i32 0, ptr %2, align 4
  store i32 1, ptr %5, align 4
  br label %27

19:                                               ; preds = %1
  %20 = load ptr, ptr %3, align 8, !tbaa !57
  %21 = getelementptr inbounds nuw %struct.afalg_aio_st, ptr %20, i32 0, i32 4
  %22 = getelementptr inbounds [1 x %struct.iocb], ptr %21, i64 0, i64 0
  call void @llvm.memset.p0.i64(ptr align 8 %22, i8 0, i64 64, i1 false)
  %23 = load ptr, ptr %3, align 8, !tbaa !57
  %24 = getelementptr inbounds nuw %struct.afalg_aio_st, ptr %23, i32 0, i32 0
  store i32 -1, ptr %24, align 8, !tbaa !60
  %25 = load ptr, ptr %3, align 8, !tbaa !57
  %26 = getelementptr inbounds nuw %struct.afalg_aio_st, ptr %25, i32 0, i32 1
  store i32 0, ptr %26, align 4, !tbaa !61
  store i32 1, ptr %2, align 4
  store i32 1, ptr %5, align 4
  br label %27

27:                                               ; preds = %19, %18
  call void @llvm.lifetime.end.p0(i64 4, ptr %4) #11
  %28 = load i32, ptr %2, align 4
  ret i32 %28
}