; Function Attrs: nounwind uwtable
define internal fastcc range(i32 0, 2) i32 @afalg_init_aio(ptr noundef nonnull initializes((8, 16)) %0) unnamed_addr #1 {
  %2 = getelementptr inbounds nuw i8, ptr %0, i64 8
  store i64 0, ptr %2, align 8, !tbaa !62
  %3 = tail call i64 (i64, ...) @syscall(i64 noundef 206, i32 noundef 1, ptr noundef nonnull %2) #13
  %4 = and i64 %3, 2147483648
  %.not = icmp eq i64 %4, 0
  br i1 %.not, label %13, label %5

5:                                                ; preds = %1
  %6 = load ptr, ptr @stderr, align 8, !tbaa !16
  %7 = tail call i32 (ptr, ptr, ...) @fprintf(ptr noundef %6, ptr noundef nonnull @.str.27, ptr noundef nonnull @.str.1, i32 noundef 251) #15
  tail call void @perror(ptr noundef null) #16
  %8 = load i32, ptr @lib_code, align 4, !tbaa !12
  %9 = icmp eq i32 %8, 0
  br i1 %9, label %10, label %ERR_AFALG_error.exit

10:                                               ; preds = %5
  %11 = tail call i32 @ERR_get_next_error_library() #13
  store i32 %11, ptr @lib_code, align 4, !tbaa !12
  br label %ERR_AFALG_error.exit

ERR_AFALG_error.exit:                             ; preds = %5, %10
  tail call void @ERR_new() #13
  tail call void @ERR_set_debug(ptr noundef nonnull @.str.5, i32 noundef 70, ptr noundef nonnull @__func__.ERR_AFALG_error) #13
  %12 = load i32, ptr @lib_code, align 4, !tbaa !12
  tail call void (i32, i32, ptr, ...) @ERR_set_error(i32 noundef %12, i32 noundef 105, ptr noundef null) #13
  tail call void @ERR_set_debug(ptr noundef nonnull @.str.1, i32 noundef 252, ptr noundef null) #13
  br label %16

13:                                               ; preds = %1
  %14 = getelementptr inbounds nuw i8, ptr %0, i64 48
  tail call void @llvm.memset.p0.i64(ptr noundef nonnull align 8 dereferenceable(64) %14, i8 0, i64 64, i1 false)
  store i32 -1, ptr %0, align 8, !tbaa !51
  %15 = getelementptr inbounds nuw i8, ptr %0, i64 4
  store i32 0, ptr %15, align 4, !tbaa !49
  br label %16

16:                                               ; preds = %13, %ERR_AFALG_error.exit
  %.0 = phi i32 [ 0, %ERR_AFALG_error.exit ], [ 1, %13 ]
  ret i32 %.0
}